target datalayout = "e-m:e-p270:32:32-p271:32:32-p272:64:64-i64:64-i128:128-f80:128-n8:16:32:64-S128"
target triple = "x86_64-pc-linux-gnu"

%struct._archiveHandle = type { %struct.Archive, i32, ptr, ptr, i64, i64, i32, %struct.sqlparseInfo, i64, i32, ptr, i64, i64, i64, ptr, ptr, ptr, ptr, ptr, ptr, ptr, ptr, ptr, ptr, ptr, ptr, ptr, ptr, ptr, ptr, ptr, ptr, ptr, ptr, ptr, ptr, ptr, ptr, ptr, ptr, ptr, ptr, ptr, ptr, i32, i32, i8, i32, i8, i32, ptr, ptr, ptr, ptr, i32, i32, ptr, ptr, ptr, %struct.pg_compress_specification, i8, i32, i32, ptr, ptr, ptr, ptr, ptr, i32, ptr, i64, i64, i32, i32, i32, i32, ptr, ptr }
%struct.Archive = type { ptr, ptr, i32, ptr, i32, i8, i32, i32, i32, ptr, i32, i8, ptr, ptr, i8, i32, ptr }
%struct.sqlparseInfo = type { i32, i8, ptr }
%struct.pg_compress_specification = type { i32, i32, i32, i32, i8, ptr }
%struct.lclContext = type { ptr, ptr, ptr, ptr }
%struct.CompressFileHandle = type { ptr, ptr, ptr, ptr, ptr, ptr, ptr, ptr, ptr, %struct.pg_compress_specification, ptr }

@.str.7 = private unnamed_addr constant [8 x i8] c"toc.dat\00", align 1
@.str.10 = private unnamed_addr constant [29 x i8] c"could not close TOC file: %m\00", align 1
@.str.15 = private unnamed_addr constant [2 x i8] c"w\00", align 1
@.str.16 = private unnamed_addr constant [36 x i8] c"could not open output file \22%s\22: %m\00", align 1

; Function Attrs: nounwind uwtable
define internal void @_CloseArchive(ptr noundef %0) #0 {
  %2 = alloca ptr, align 8
  %3 = alloca ptr, align 8
  %4 = alloca ptr, align 8
  %5 = alloca %struct.pg_compress_specification, align 8
  %6 = alloca [1024 x i8], align 16
  store ptr %0, ptr %2, align 8
  call void @llvm.lifetime.start.p0(i64 8, ptr %3) #9
  %7 = load ptr, ptr %2, align 8
  %8 = getelementptr inbounds nuw %struct._archiveHandle, ptr %7, i32 0, i32 63
  %9 = load ptr, ptr %8, align 8
  store ptr %9, ptr %3, align 8
  %10 = load ptr, ptr %2, align 8
  %11 = getelementptr inbounds nuw %struct._archiveHandle, ptr %10, i32 0, i32 62
  %12 = load i32, ptr %11, align 8
  %13 = icmp eq i32 %12, 1
  br i1 %13, label %14, label %71

14:                                               ; preds = %1
  call void @llvm.lifetime.start.p0(i64 8, ptr %4) #9
  call void @llvm.lifetime.start.p0(i64 32, ptr %5) #9
  call void @llvm.memset.p0.i64(ptr align 8 %5, i8 0, i64 32, i1 false)
  call void @llvm.lifetime.start.p0(i64 1024, ptr %6) #9
  %15 = load ptr, ptr %2, align 8
  %16 = getelementptr inbounds [1024 x i8], ptr %6, i64 0, i64 0
  call void @setFilePath(ptr noundef %15, ptr noundef %16, ptr noundef @.str.7)
  %17 = load ptr, ptr %2, align 8
  %18 = call ptr @ParallelBackupStart(ptr noundef %17)
  %19 = load ptr, ptr %3, align 8
  %20 = getelementptr inbounds nuw %struct.lclContext, ptr %19, i32 0, i32 3
  store ptr %18, ptr %20, align 8
  %21 = getelementptr inbounds nuw %struct.pg_compress_specification, ptr %5, i32 0, i32 0
  store i32 0, ptr %21, align 8
  %22 = call ptr @InitCompressFileHandle(ptr noundef byval(%struct.pg_compress_specification) align 8 %5)
  store ptr %22, ptr %4, align 8
  %23 = load ptr, ptr %4, align 8
  %24 = getelementptr inbounds nuw %struct.CompressFileHandle, ptr %23, i32 0, i32 1
  %25 = load ptr, ptr %24, align 8
  %26 = getelementptr inbounds [1024 x i8], ptr %6, i64 0, i64 0
  %27 = load ptr, ptr %4, align 8
  %28 = call zeroext i1 %25(ptr noundef %26, ptr noundef @.str.15, ptr noundef %27)
  br i1 %28, label %34, label %29

29:                                               ; preds = %14
  br label %30

30:                                               ; preds = %29
  %31 = getelementptr inbounds [1024 x i8], ptr %6, i64 0, i64 0
  call void (i32, i32, ptr, ...) @pg_log_generic(i32 noundef 4, i32 noundef 0, ptr noundef @.str.16, ptr noundef %31)
  call void @exit_nicely(i32 noundef 1) #11
  unreachable

32:                                               ; No predecessors!
  br label %33

33:                                               ; preds = %32
  br label %34

34:                                               ; preds = %33, %14
  %35 = load ptr, ptr %4, align 8
  %36 = load ptr, ptr %3, align 8
  %37 = getelementptr inbounds nuw %struct.lclContext, ptr %36, i32 0, i32 1
  store ptr %35, ptr %37, align 8
  %38 = load ptr, ptr %2, align 8
  %39 = getelementptr inbounds nuw %struct._archiveHandle, ptr %38, i32 0, i32 6
  store i32 3, ptr %39, align 8
  %40 = load ptr, ptr %2, align 8
  call void @WriteHead(ptr noundef %40)
  %41 = load ptr, ptr %2, align 8
  %42 = getelementptr inbounds nuw %struct._archiveHandle, ptr %41, i32 0, i32 6
  store i32 5, ptr %42, align 8
  %43 = load ptr, ptr %2, align 8
  call void @WriteToc(ptr noundef %43)
  %44 = load ptr, ptr %4, align 8
  %45 = call zeroext i1 @EndCompressFileHandle(ptr noundef %44)
  br i1 %45, label %50, label %46

46:                                               ; preds = %34
  br label %47

47:                                               ; preds = %46
  call void (i32, i32, ptr, ...) @pg_log_generic(i32 noundef 4, i32 noundef 0, ptr noundef @.str.10)
  call void @exit_nicely(i32 noundef 1) #11
  unreachable

48:                                               ; No predecessors!
  br label %49

49:                                               ; preds = %48
  br label %50

50:                                               ; preds = %49, %34
  %51 = load ptr, ptr %2, align 8
  %52 = load ptr, ptr %3, align 8
  %53 = getelementptr inbounds nuw %struct.lclContext, ptr %52, i32 0, i32 3
  %54 = load ptr, ptr %53, align 8
  call void @WriteDataChunks(ptr noundef %51, ptr noundef %54)
  %55 = load ptr, ptr %2, align 8
  %56 = load ptr, ptr %3, align 8
  %57 = getelementptr inbounds nuw %struct.lclContext, ptr %56, i32 0, i32 3
  %58 = load ptr, ptr %57, align 8
  call void @ParallelBackupEnd(ptr noundef %55, ptr noundef %58)
  %59 = load ptr, ptr %2, align 8
  %60 = getelementptr inbounds nuw %struct._archiveHandle, ptr %59, i32 0, i32 60
  %61 = load i8, ptr %60, align 8, !range !6, !noundef !7
  %62 = trunc i8 %61 to i1
  br i1 %62, label %63, label %70

63:                                               ; preds = %50
  %64 = load ptr, ptr %3, align 8
  %65 = getelementptr inbounds nuw %struct.lclContext, ptr %64, i32 0, i32 0
  %66 = load ptr, ptr %65, align 8
  %67 = load ptr, ptr %2, align 8
  %68 = getelementptr inbounds nuw %struct._archiveHandle, ptr %67, i32 0, i32 61
  %69 = load i32, ptr %68, align 4
  call void @sync_dir_recurse(ptr noundef %66, i32 noundef %69)
  br label %70

70:                                               ; preds = %63, %50
  call void @llvm.lifetime.end.p0(i64 1024, ptr %6) #9
  call void @llvm.lifetime.end.p0(i64 32, ptr %5) #9
  call void @llvm.lifetime.end.p0(i64 8, ptr %4) #9
  br label %71

71:                                               ; preds = %70, %1
  %72 = load ptr, ptr %2, align 8
  %73 = getelementptr inbounds nuw %struct._archiveHandle, ptr %72, i32 0, i32 51
  store ptr null, ptr %73, align 8
  call void @llvm.lifetime.end.p0(i64 8, ptr %3) #9
  ret void
}