; Function Attrs: nounwind uwtable
define internal void @_CloseArchive(ptr noundef %0) #0 {
  %2 = alloca %struct.pg_compress_specification, align 8
  %3 = alloca [1024 x i8], align 16
  %4 = getelementptr inbounds nuw i8, ptr %0, i64 592
  %5 = load ptr, ptr %4, align 8
  %6 = getelementptr inbounds nuw i8, ptr %0, i64 584
  %7 = load i32, ptr %6, align 8
  %8 = icmp eq i32 %7, 1
  br i1 %8, label %9, label %33

9:                                                ; preds = %1
  call void @llvm.lifetime.start.p0(i64 32, ptr nonnull %2) #14
  call void @llvm.memset.p0.i64(ptr noundef nonnull align 8 dereferenceable(32) %2, i8 0, i64 32, i1 false)
  call void @llvm.lifetime.start.p0(i64 1024, ptr nonnull %3) #14
  %.val.val = load ptr, ptr %5, align 8
  call fastcc void @setFilePath(ptr %.val.val, ptr noundef %3, ptr noundef nonnull @.str.7)
  %10 = call ptr @ParallelBackupStart(ptr noundef nonnull %0) #14
  %11 = getelementptr inbounds nuw i8, ptr %5, i64 24
  store ptr %10, ptr %11, align 8
  store i32 0, ptr %2, align 8
  %12 = call ptr @InitCompressFileHandle(ptr noundef nonnull byval(%struct.pg_compress_specification) align 8 %2) #14
  %13 = getelementptr inbounds nuw i8, ptr %12, i64 8
  %14 = load ptr, ptr %13, align 8
  %15 = call zeroext i1 %14(ptr noundef nonnull %3, ptr noundef nonnull @.str.15, ptr noundef %12) #14
  br i1 %15, label %17, label %16

16:                                               ; preds = %9
  call void (i32, i32, ptr, ...) @pg_log_generic(i32 noundef 4, i32 noundef 0, ptr noundef nonnull @.str.16, ptr noundef nonnull %3) #14
  call void @exit_nicely(i32 noundef 1) #15
  unreachable

17:                                               ; preds = %9
  %18 = getelementptr inbounds nuw i8, ptr %5, i64 8
  store ptr %12, ptr %18, align 8
  %19 = getelementptr inbounds nuw i8, ptr %0, i64 144
  store i32 3, ptr %19, align 8
  call void @WriteHead(ptr noundef nonnull %0) #14
  store i32 5, ptr %19, align 8
  call void @WriteToc(ptr noundef nonnull %0) #14
  %20 = call zeroext i1 @EndCompressFileHandle(ptr noundef nonnull %12) #14
  br i1 %20, label %22, label %21

21:                                               ; preds = %17
  call void (i32, i32, ptr, ...) @pg_log_generic(i32 noundef 4, i32 noundef 0, ptr noundef nonnull @.str.10) #14
  call void @exit_nicely(i32 noundef 1) #15
  unreachable

22:                                               ; preds = %17
  %23 = load ptr, ptr %11, align 8
  call void @WriteDataChunks(ptr noundef nonnull %0, ptr noundef %23) #14
  %24 = load ptr, ptr %11, align 8
  call void @ParallelBackupEnd(ptr noundef nonnull %0, ptr noundef %24) #14
  %25 = getelementptr inbounds nuw i8, ptr %0, i64 576
  %26 = load i8, ptr %25, align 8, !range !6, !noundef !7
  %27 = trunc nuw i8 %26 to i1
  br i1 %27, label %28, label %32

28:                                               ; preds = %22
  %29 = load ptr, ptr %5, align 8
  %30 = getelementptr inbounds nuw i8, ptr %0, i64 580
  %31 = load i32, ptr %30, align 4
  call void @sync_dir_recurse(ptr noundef %29, i32 noundef %31) #14
  br label %32

32:                                               ; preds = %28, %22
  call void @llvm.lifetime.end.p0(i64 1024, ptr nonnull %3) #14
  call void @llvm.lifetime.end.p0(i64 32, ptr nonnull %2) #14
  br label %33

33:                                               ; preds = %32, %1
  %34 = getelementptr inbounds nuw i8, ptr %0, i64 488
  store ptr null, ptr %34, align 8
  ret void
}